target datalayout = "e-m:e-p270:32:32-p271:32:32-p272:64:64-i64:64-i128:128-f80:128-n8:16:32:64-S128"
target triple = "x86_64-pc-linux-gnu"

%struct.mbedtls_ecp_group = type { i32, %struct.mbedtls_mpi, %struct.mbedtls_mpi, %struct.mbedtls_mpi, %struct.mbedtls_ecp_point, %struct.mbedtls_mpi, i64, i64, i32, ptr, ptr, ptr, ptr, ptr, i64 }
%struct.mbedtls_ecp_point = type { %struct.mbedtls_mpi, %struct.mbedtls_mpi, %struct.mbedtls_mpi }
%struct.mbedtls_mpi = type { ptr, i16, i16 }

; Function Attrs: inlinehint nounwind uwtable
define internal i32 @mbedtls_mpi_shift_l_mod(ptr noundef %0, ptr noundef %1, i64 noundef %2) #8 {
  %4 = alloca ptr, align 8
  %5 = alloca ptr, align 8
  %6 = alloca i64, align 8
  %7 = alloca i32, align 4
  store ptr %0, ptr %4, align 8, !tbaa !25
  store ptr %1, ptr %5, align 8, !tbaa !50
  store i64 %2, ptr %6, align 8, !tbaa !7
  call void @llvm.lifetime.start.p0(i64 4, ptr %7) #11
  store i32 -110, ptr %7, align 4, !tbaa !3
  br label %8

8:                                                ; preds = %3
  %9 = load ptr, ptr %5, align 8, !tbaa !50
  %10 = load i64, ptr %6, align 8, !tbaa !7
  %11 = call i32 @mbedtls_mpi_shift_l(ptr noundef %9, i64 noundef %10)
  store i32 %11, ptr %7, align 4, !tbaa !3
  %12 = icmp ne i32 %11, 0
  br i1 %12, label %13, label %14

13:                                               ; preds = %8
  br label %36

14:                                               ; preds = %8
  br label %15

15:                                               ; preds = %14
  br label %16

16:                                               ; preds = %15
  br label %17

17:                                               ; preds = %34, %16
  %18 = load ptr, ptr %5, align 8, !tbaa !50
  %19 = load ptr, ptr %4, align 8, !tbaa !25
  %20 = getelementptr inbounds nuw %struct.mbedtls_ecp_group, ptr %19, i32 0, i32 1
  %21 = call i32 @mbedtls_mpi_cmp_mpi(ptr noundef %18, ptr noundef %20)
  %22 = icmp sge i32 %21, 0
  br i1 %22, label %23, label %35

23:                                               ; preds = %17
  br label %24

24:                                               ; preds = %23
  %25 = load ptr, ptr %5, align 8, !tbaa !50
  %26 = load ptr, ptr %5, align 8, !tbaa !50
  %27 = load ptr, ptr %4, align 8, !tbaa !25
  %28 = getelementptr inbounds nuw %struct.mbedtls_ecp_group, ptr %27, i32 0, i32 1
  %29 = call i32 @mbedtls_mpi_sub_abs(ptr noundef %25, ptr noundef %26, ptr noundef %28)
  store i32 %29, ptr %7, align 4, !tbaa !3
  %30 = icmp ne i32 %29, 0
  br i1 %30, label %31, label %32

31:                                               ; preds = %24
  br label %36

32:                                               ; preds = %24
  br label %33

33:                                               ; preds = %32
  br label %34

34:                                               ; preds = %33
  br label %17, !llvm.loop !87

35:                                               ; preds = %17
  br label %36

36:                                               ; preds = %35, %31, %13
  %37 = load i32, ptr %7, align 4, !tbaa !3
  call void @llvm.lifetime.end.p0(i64 4, ptr %7) #11
  ret i32 %37
}