; Function Attrs: inlinehint nounwind uwtable
define internal fastcc i32 @mbedtls_mpi_shift_l_mod(ptr noundef %0, ptr noundef nonnull %1) unnamed_addr #15 {
  %3 = tail call i32 @mbedtls_mpi_shift_l(ptr noundef nonnull %1, i64 noundef 1) #21
  %.not = icmp eq i32 %3, 0
  br i1 %.not, label %.preheader, label %.loopexit

.preheader:                                       ; preds = %2
  %4 = getelementptr inbounds nuw i8, ptr %0, i64 8
  br label %5

5:                                                ; preds = %.preheader, %8
  %6 = tail call i32 @mbedtls_mpi_cmp_mpi(ptr noundef nonnull %1, ptr noundef nonnull %4) #21
  %7 = icmp sgt i32 %6, -1
  br i1 %7, label %8, label %.loopexit

8:                                                ; preds = %5
  %9 = tail call i32 @mbedtls_mpi_sub_abs(ptr noundef nonnull %1, ptr noundef nonnull %1, ptr noundef nonnull %4) #21
  %.not11 = icmp eq i32 %9, 0
  br i1 %.not11, label %5, label %.loopexit, !llvm.loop !74

.loopexit:                                        ; preds = %5, %8, %2
  %.0 = phi i32 [ %3, %2 ], [ 0, %5 ], [ %9, %8 ]
  ret i32 %.0
}